; Function Attrs: nounwind uwtable
define internal ptr @_curses_panel_panel_above(ptr noundef readonly captures(none) %0, ptr readnone captures(none) %1) #0 {
  %3 = getelementptr i8, ptr %0, i64 16
  %.val = load ptr, ptr %3, align 8, !tbaa !21
  %4 = tail call ptr @panel_above(ptr noundef %.val) #4
  %5 = icmp eq ptr %4, null
  br i1 %5, label %_curses_panel_panel_above_impl.exit, label %6

6:                                                ; preds = %2
  %7 = load ptr, ptr @lop, align 8, !tbaa !17
  br label %8

8:                                                ; preds = %12, %6
  %.0.i.i = phi ptr [ %7, %6 ], [ %14, %12 ]
  %9 = load ptr, ptr %.0.i.i, align 8, !tbaa !19
  %10 = getelementptr inbounds nuw i8, ptr %9, i64 16
  %11 = load ptr, ptr %10, align 8, !tbaa !21
  %.not.i.i = icmp eq ptr %11, %4
  br i1 %.not.i.i, label %find_po.exit.i, label %12

12:                                               ; preds = %8
  %13 = getelementptr inbounds nuw i8, ptr %.0.i.i, i64 8
  %14 = load ptr, ptr %13, align 8, !tbaa !24
  %15 = icmp eq ptr %14, null
  br i1 %15, label %16, label %8, !llvm.loop !25

16:                                               ; preds = %12
  %17 = load ptr, ptr @PyExc_RuntimeError, align 8, !tbaa !13
  tail call void @PyErr_SetString(ptr noundef %17, ptr noundef nonnull @.str.6) #4
  br label %_curses_panel_panel_above_impl.exit

find_po.exit.i:                                   ; preds = %8
  %18 = load i32, ptr %9, align 8, !tbaa !14
  %19 = icmp slt i32 %18, 0
  br i1 %19, label %_curses_panel_panel_above_impl.exit, label %20

20:                                               ; preds = %find_po.exit.i
  %21 = add nuw i32 %18, 1
  store i32 %21, ptr %9, align 8, !tbaa !14
  br label %_curses_panel_panel_above_impl.exit

_curses_panel_panel_above_impl.exit:              ; preds = %2, %16, %find_po.exit.i, %20
  %.0.i = phi ptr [ null, %16 ], [ @_Py_NoneStruct, %2 ], [ %9, %find_po.exit.i ], [ %9, %20 ]
  ret ptr %.0.i
}